; Function Attrs: nofree norecurse nosync nounwind memory(readwrite, inaccessiblemem: none) uwtable
define internal noundef i32 @filter_inverse_flt_clip(ptr readnone captures(none) %0, ptr noundef readonly captures(none) %1, i32 noundef %2, i32 noundef %3) #6 {
  %5 = getelementptr inbounds nuw i8, ptr %1, i64 8
  %6 = load ptr, ptr %5, align 8, !tbaa !47
  %7 = getelementptr inbounds nuw i8, ptr %1, i64 24
  %8 = load i32, ptr %7, align 8, !tbaa !48
  %9 = getelementptr inbounds nuw i8, ptr %1, i64 28
  %10 = load i32, ptr %9, align 4, !tbaa !50
  %11 = getelementptr inbounds nuw i8, ptr %1, i64 32
  %12 = load float, ptr %11, align 8, !tbaa !53
  %13 = fsub nsz float 1.000000e+00, %12
  %14 = fdiv nsz float 1.000000e+00, %13
  %15 = mul nsw i32 %10, %2
  %16 = sdiv i32 %15, %3
  %17 = add nsw i32 %2, 1
  %18 = mul nsw i32 %10, %17
  %19 = sdiv i32 %18, %3
  %20 = load ptr, ptr %6, align 8, !tbaa !55
  %21 = icmp slt i32 %16, %19
  br i1 %21, label %.lr.ph52, label %._crit_edge53

.lr.ph52:                                         ; preds = %4
  %22 = getelementptr inbounds nuw i8, ptr %1, i64 16
  %23 = load ptr, ptr %22, align 8, !tbaa !46
  %24 = load ptr, ptr %1, align 8, !tbaa !44
  %25 = load ptr, ptr %23, align 8, !tbaa !55
  %26 = load ptr, ptr %24, align 8, !tbaa !55
  %27 = icmp sgt i32 %8, 0
  %28 = sext i32 %10 to i64
  br i1 %27, label %.lr.ph.us.preheader, label %._crit_edge53

.lr.ph.us.preheader:                              ; preds = %.lr.ph52
  %29 = sext i32 %16 to i64
  %wide.trip.count = sext i32 %19 to i64
  br label %.lr.ph.us

.lr.ph.us:                                        ; preds = %.lr.ph.us.preheader, %._crit_edge.us
  %indvars.iv = phi i64 [ %29, %.lr.ph.us.preheader ], [ %indvars.iv.next, %._crit_edge.us ]
  %30 = getelementptr inbounds float, ptr %20, i64 %indvars.iv
  br label %31

31:                                               ; preds = %.lr.ph.us, %31
  %.04449.us = phi i32 [ 0, %.lr.ph.us ], [ %45, %31 ]
  %.04548.us = phi ptr [ %26, %.lr.ph.us ], [ %43, %31 ]
  %.04647.us = phi ptr [ %25, %.lr.ph.us ], [ %44, %31 ]
  %32 = getelementptr inbounds float, ptr %.04647.us, i64 %indvars.iv
  %33 = load float, ptr %32, align 4, !tbaa !58
  %34 = load float, ptr %30, align 4, !tbaa !58
  %35 = fneg nsz float %34
  %36 = tail call nsz float @llvm.fmuladd.f32(float %35, float %12, float %33)
  %37 = fmul nsz float %14, %36
  %38 = getelementptr inbounds float, ptr %.04548.us, i64 %indvars.iv
  store float %37, ptr %38, align 4, !tbaa !58
  store float %37, ptr %30, align 4, !tbaa !58
  %39 = load float, ptr %38, align 4, !tbaa !58
  %40 = fcmp nsz ogt float %39, -1.000000e+00
  %41 = select nsz i1 %40, float %39, float -1.000000e+00
  %42 = fcmp nsz ogt float %41, 1.000000e+00
  %..i.us = select nsz i1 %42, float 1.000000e+00, float %41
  store float %..i.us, ptr %38, align 4, !tbaa !58
  %43 = getelementptr inbounds float, ptr %.04548.us, i64 %28
  %44 = getelementptr inbounds float, ptr %.04647.us, i64 %28
  %45 = add nuw nsw i32 %.04449.us, 1
  %exitcond.not = icmp eq i32 %45, %8
  br i1 %exitcond.not, label %._crit_edge.us, label %31, !llvm.loop !64

._crit_edge.us:                                   ; preds = %31
  %indvars.iv.next = add nsw i64 %indvars.iv, 1
  %exitcond56.not = icmp eq i64 %indvars.iv.next, %wide.trip.count
  br i1 %exitcond56.not, label %._crit_edge53, label %.lr.ph.us, !llvm.loop !65

._crit_edge53:                                    ; preds = %._crit_edge.us, %.lr.ph52, %4
  ret i32 0
}